---
triple:          'arm64-apple-darwin'
binary-path:     '/Users/mohamedibrahim/Documents/Problem Solving/CPP-ProblemSolving/HackerRank/Easy/output/hello'
relocations:
  - { offsetInCU: 0x2D90, offset: 0x2D90, size: 0x8, addend: 0x0, symName: __ZNSt3__124__put_character_sequenceB7v160006IcNS_11char_traitsIcEEEERNS_13basic_ostreamIT_T0_EES7_PKS4_m, symObjAddr: 0x214, symBinAddr: 0x100003040, symSize: 0x1F4 }
  - { offsetInCU: 0x46C7, offset: 0x46C7, size: 0x8, addend: 0x0, symName: __ZNSt3__1lsB7v160006INS_11char_traitsIcEEEERNS_13basic_ostreamIcT_EES6_PKc, symObjAddr: 0x48, symBinAddr: 0x100002E74, symSize: 0x48 }
  - { offsetInCU: 0x470D, offset: 0x470D, size: 0x8, addend: 0x0, symName: __ZNSt3__1lsB7v160006IcNS_11char_traitsIcEENS_9allocatorIcEEEERNS_13basic_ostreamIT_T0_EES9_RKNS_12basic_stringIS6_S7_T1_EE, symObjAddr: 0x90, symBinAddr: 0x100002EBC, symSize: 0x4C }
  - { offsetInCU: 0x4765, offset: 0x4765, size: 0x8, addend: 0x0, symName: __ZNSt3__116__pad_and_outputB7v160006IcNS_11char_traitsIcEEEENS_19ostreambuf_iteratorIT_T0_EES6_PKS4_S8_S8_RNS_8ios_baseES4_, symObjAddr: 0x46C, symBinAddr: 0x100003298, symSize: 0x248 }
  - { offsetInCU: 0x4834, offset: 0x4834, size: 0x8, addend: 0x0, symName: __ZNSt3__119__debug_db_insert_cB7v160006INS_12basic_stringIcNS_11char_traitsIcEENS_9allocatorIcEEEEEEvPT_, symObjAddr: 0x928, symBinAddr: 0x100003754, symSize: 0x10 }
  - { offsetInCU: 0x4865, offset: 0x4865, size: 0x8, addend: 0x0, symName: __ZNSt3__112__to_addressB7v160006IKcEEPT_S3_, symObjAddr: 0x9F4, symBinAddr: 0x100003820, symSize: 0x14 }
  - { offsetInCU: 0x489A, offset: 0x489A, size: 0x8, addend: 0x0, symName: __ZNSt3__130__libcpp_is_constant_evaluatedB7v160006Ev, symObjAddr: 0xB20, symBinAddr: 0x10000394C, symSize: 0xC }
  - { offsetInCU: 0x48EA, offset: 0x48EA, size: 0x8, addend: 0x0, symName: __ZNSt3__19use_facetB7v160006INS_5ctypeIcEEEERKT_RKNS_6localeE, symObjAddr: 0xCD8, symBinAddr: 0x100003B04, symSize: 0x2C }
  - { offsetInCU: 0x4DB9, offset: 0x4DB9, size: 0x8, addend: 0x0, symName: __ZNSt3__118__constexpr_strlenB7v160006EPKc, symObjAddr: 0xD70, symBinAddr: 0x100003B9C, symSize: 0x24 }
  - { offsetInCU: 0x723D, offset: 0x723D, size: 0x8, addend: 0x0, symName: __Z8sayHelloNSt3__112basic_stringIcNS_11char_traitsIcEENS_9allocatorIcEEEE, symObjAddr: 0x0, symBinAddr: 0x100002E2C, symSize: 0x48 }
  - { offsetInCU: 0x7266, offset: 0x7266, size: 0x8, addend: 0x0, symName: _main, symObjAddr: 0xDC, symBinAddr: 0x100002F08, symSize: 0xF8 }
  - { offsetInCU: 0x7284, offset: 0x7284, size: 0x8, addend: 0x0, symName: __ZNSt3__112basic_stringIcNS_11char_traitsIcEENS_9allocatorIcEEEC1B7v160006IDnEEPKc, symObjAddr: 0x1D4, symBinAddr: 0x100003000, symSize: 0x34 }
  - { offsetInCU: 0x72C0, offset: 0x72C0, size: 0x8, addend: 0x0, symName: __ZNSt3__111char_traitsIcE6lengthEPKc, symObjAddr: 0x408, symBinAddr: 0x100003234, symSize: 0x48 }
  - { offsetInCU: 0x7300, offset: 0x7300, size: 0x8, addend: 0x0, symName: __ZNKSt3__113basic_ostreamIcNS_11char_traitsIcEEE6sentrycvbB7v160006Ev, symObjAddr: 0x450, symBinAddr: 0x10000327C, symSize: 0x1C }
  - { offsetInCU: 0x7324, offset: 0x7324, size: 0x8, addend: 0x0, symName: __ZNSt3__119ostreambuf_iteratorIcNS_11char_traitsIcEEEC1B7v160006ERNS_13basic_ostreamIcS2_EE, symObjAddr: 0x6B4, symBinAddr: 0x1000034E0, symSize: 0x34 }
  - { offsetInCU: 0x735A, offset: 0x735A, size: 0x8, addend: 0x0, symName: __ZNKSt3__18ios_base5flagsB7v160006Ev, symObjAddr: 0x6E8, symBinAddr: 0x100003514, symSize: 0x18 }
  - { offsetInCU: 0x7380, offset: 0x7380, size: 0x8, addend: 0x0, symName: __ZNKSt3__19basic_iosIcNS_11char_traitsIcEEE4fillB7v160006Ev, symObjAddr: 0x700, symBinAddr: 0x10000352C, symSize: 0x64 }
  - { offsetInCU: 0x73A6, offset: 0x73A6, size: 0x8, addend: 0x0, symName: __ZNKSt3__119ostreambuf_iteratorIcNS_11char_traitsIcEEE6failedB7v160006Ev, symObjAddr: 0x764, symBinAddr: 0x100003590, symSize: 0x24 }
  - { offsetInCU: 0x73CA, offset: 0x73CA, size: 0x8, addend: 0x0, symName: __ZNSt3__19basic_iosIcNS_11char_traitsIcEEE8setstateB7v160006Ej, symObjAddr: 0x788, symBinAddr: 0x1000035B4, symSize: 0x2C }
  - { offsetInCU: 0x73FD, offset: 0x73FD, size: 0x8, addend: 0x0, symName: __ZNKSt3__18ios_base5widthB7v160006Ev, symObjAddr: 0x7B4, symBinAddr: 0x1000035E0, symSize: 0x18 }
  - { offsetInCU: 0x7423, offset: 0x7423, size: 0x8, addend: 0x0, symName: __ZNSt3__115basic_streambufIcNS_11char_traitsIcEEE5sputnB7v160006EPKcl, symObjAddr: 0x7CC, symBinAddr: 0x1000035F8, symSize: 0x3C }
  - { offsetInCU: 0x7463, offset: 0x7463, size: 0x8, addend: 0x0, symName: __ZNSt3__112basic_stringIcNS_11char_traitsIcEENS_9allocatorIcEEEC1B7v160006Emc, symObjAddr: 0x808, symBinAddr: 0x100003634, symSize: 0x3C }
  - { offsetInCU: 0x74A9, offset: 0x74A9, size: 0x8, addend: 0x0, symName: __ZNKSt3__112basic_stringIcNS_11char_traitsIcEENS_9allocatorIcEEE4dataB7v160006Ev, symObjAddr: 0x844, symBinAddr: 0x100003670, symSize: 0x28 }
  - { offsetInCU: 0x74CD, offset: 0x74CD, size: 0x8, addend: 0x0, symName: __ZNSt3__18ios_base5widthB7v160006El, symObjAddr: 0x86C, symBinAddr: 0x100003698, symSize: 0x2C }
  - { offsetInCU: 0x7511, offset: 0x7511, size: 0x8, addend: 0x0, symName: __ZNSt3__112basic_stringIcNS_11char_traitsIcEENS_9allocatorIcEEEC2B7v160006Emc, symObjAddr: 0x898, symBinAddr: 0x1000036C4, symSize: 0x54 }
  - { offsetInCU: 0x755C, offset: 0x755C, size: 0x8, addend: 0x0, symName: __ZNSt3__117__compressed_pairINS_12basic_stringIcNS_11char_traitsIcEENS_9allocatorIcEEE5__repES5_EC1B7v160006INS_18__default_init_tagESA_EEOT_OT0_, symObjAddr: 0x8EC, symBinAddr: 0x100003718, symSize: 0x3C }
  - { offsetInCU: 0x75B2, offset: 0x75B2, size: 0x8, addend: 0x0, symName: __ZNSt3__117__compressed_pairINS_12basic_stringIcNS_11char_traitsIcEENS_9allocatorIcEEE5__repES5_EC2B7v160006INS_18__default_init_tagESA_EEOT_OT0_, symObjAddr: 0x938, symBinAddr: 0x100003764, symSize: 0x3C }
  - { offsetInCU: 0x7608, offset: 0x7608, size: 0x8, addend: 0x0, symName: __ZNSt3__122__compressed_pair_elemINS_12basic_stringIcNS_11char_traitsIcEENS_9allocatorIcEEE5__repELi0ELb0EEC2B7v160006ENS_18__default_init_tagE, symObjAddr: 0x974, symBinAddr: 0x1000037A0, symSize: 0x14 }
  - { offsetInCU: 0x763A, offset: 0x763A, size: 0x8, addend: 0x0, symName: __ZNSt3__122__compressed_pair_elemINS_9allocatorIcEELi1ELb1EEC2B7v160006ENS_18__default_init_tagE, symObjAddr: 0x988, symBinAddr: 0x1000037B4, symSize: 0x2C }
  - { offsetInCU: 0x766C, offset: 0x766C, size: 0x8, addend: 0x0, symName: __ZNSt3__19allocatorIcEC2B7v160006Ev, symObjAddr: 0x9B4, symBinAddr: 0x1000037E0, symSize: 0x2C }
  - { offsetInCU: 0x7694, offset: 0x7694, size: 0x8, addend: 0x0, symName: __ZNSt3__116__non_trivial_ifILb1ENS_9allocatorIcEEEC2B7v160006Ev, symObjAddr: 0x9E0, symBinAddr: 0x10000380C, symSize: 0x14 }
  - { offsetInCU: 0x76BC, offset: 0x76BC, size: 0x8, addend: 0x0, symName: __ZNKSt3__112basic_stringIcNS_11char_traitsIcEENS_9allocatorIcEEE13__get_pointerB7v160006Ev, symObjAddr: 0xA08, symBinAddr: 0x100003834, symSize: 0x54 }
  - { offsetInCU: 0x76E0, offset: 0x76E0, size: 0x8, addend: 0x0, symName: __ZNKSt3__112basic_stringIcNS_11char_traitsIcEENS_9allocatorIcEEE9__is_longB7v160006Ev, symObjAddr: 0xA5C, symBinAddr: 0x100003888, symSize: 0x74 }
  - { offsetInCU: 0x7704, offset: 0x7704, size: 0x8, addend: 0x0, symName: __ZNKSt3__112basic_stringIcNS_11char_traitsIcEENS_9allocatorIcEEE18__get_long_pointerB7v160006Ev, symObjAddr: 0xAD0, symBinAddr: 0x1000038FC, symSize: 0x28 }
  - { offsetInCU: 0x7728, offset: 0x7728, size: 0x8, addend: 0x0, symName: __ZNKSt3__112basic_stringIcNS_11char_traitsIcEENS_9allocatorIcEEE19__get_short_pointerB7v160006Ev, symObjAddr: 0xAF8, symBinAddr: 0x100003924, symSize: 0x28 }
  - { offsetInCU: 0x774C, offset: 0x774C, size: 0x8, addend: 0x0, symName: __ZNKSt3__117__compressed_pairINS_12basic_stringIcNS_11char_traitsIcEENS_9allocatorIcEEE5__repES5_E5firstB7v160006Ev, symObjAddr: 0xB2C, symBinAddr: 0x100003958, symSize: 0x24 }
  - { offsetInCU: 0x7770, offset: 0x7770, size: 0x8, addend: 0x0, symName: __ZNKSt3__122__compressed_pair_elemINS_12basic_stringIcNS_11char_traitsIcEENS_9allocatorIcEEE5__repELi0ELb0EE5__getB7v160006Ev, symObjAddr: 0xB50, symBinAddr: 0x10000397C, symSize: 0x14 }
  - { offsetInCU: 0x7794, offset: 0x7794, size: 0x8, addend: 0x0, symName: __ZNSt3__114pointer_traitsIPKcE10pointer_toB7v160006ERS1_, symObjAddr: 0xB64, symBinAddr: 0x100003990, symSize: 0x14 }
  - { offsetInCU: 0x77B6, offset: 0x77B6, size: 0x8, addend: 0x0, symName: __ZNSt3__119ostreambuf_iteratorIcNS_11char_traitsIcEEEC2B7v160006ERNS_13basic_ostreamIcS2_EE, symObjAddr: 0xB78, symBinAddr: 0x1000039A4, symSize: 0x68 }
  - { offsetInCU: 0x77EC, offset: 0x77EC, size: 0x8, addend: 0x0, symName: __ZNKSt3__19basic_iosIcNS_11char_traitsIcEEE5rdbufB7v160006Ev, symObjAddr: 0xBE0, symBinAddr: 0x100003A0C, symSize: 0x24 }
  - { offsetInCU: 0x7812, offset: 0x7812, size: 0x8, addend: 0x0, symName: __ZNKSt3__18ios_base5rdbufB7v160006Ev, symObjAddr: 0xC04, symBinAddr: 0x100003A30, symSize: 0x18 }
  - { offsetInCU: 0x7836, offset: 0x7836, size: 0x8, addend: 0x0, symName: __ZNSt3__111char_traitsIcE11eq_int_typeEii, symObjAddr: 0xC1C, symBinAddr: 0x100003A48, symSize: 0x28 }
  - { offsetInCU: 0x7866, offset: 0x7866, size: 0x8, addend: 0x0, symName: __ZNSt3__111char_traitsIcE3eofEv, symObjAddr: 0xC44, symBinAddr: 0x100003A70, symSize: 0x8 }
  - { offsetInCU: 0x7879, offset: 0x7879, size: 0x8, addend: 0x0, symName: __ZNKSt3__19basic_iosIcNS_11char_traitsIcEEE5widenB7v160006Ec, symObjAddr: 0xC4C, symBinAddr: 0x100003A78, symSize: 0x8C }
  - { offsetInCU: 0x78E5, offset: 0x78E5, size: 0x8, addend: 0x0, symName: __ZNKSt3__15ctypeIcE5widenB7v160006Ec, symObjAddr: 0xD04, symBinAddr: 0x100003B30, symSize: 0x38 }
  - { offsetInCU: 0x7918, offset: 0x7918, size: 0x8, addend: 0x0, symName: __ZNSt3__18ios_base8setstateB7v160006Ej, symObjAddr: 0xD3C, symBinAddr: 0x100003B68, symSize: 0x34 }
  - { offsetInCU: 0x794D, offset: 0x794D, size: 0x8, addend: 0x0, symName: __ZNKSt3__112basic_stringIcNS_11char_traitsIcEENS_9allocatorIcEEE4sizeB7v160006Ev, symObjAddr: 0xD94, symBinAddr: 0x100003BC0, symSize: 0x54 }
  - { offsetInCU: 0x7971, offset: 0x7971, size: 0x8, addend: 0x0, symName: __ZNKSt3__112basic_stringIcNS_11char_traitsIcEENS_9allocatorIcEEE15__get_long_sizeB7v160006Ev, symObjAddr: 0xDE8, symBinAddr: 0x100003C14, symSize: 0x28 }
  - { offsetInCU: 0x7995, offset: 0x7995, size: 0x8, addend: 0x0, symName: __ZNKSt3__112basic_stringIcNS_11char_traitsIcEENS_9allocatorIcEEE16__get_short_sizeB7v160006Ev, symObjAddr: 0xE10, symBinAddr: 0x100003C3C, symSize: 0x34 }
  - { offsetInCU: 0x79B9, offset: 0x79B9, size: 0x8, addend: 0x0, symName: __ZNSt3__112basic_stringIcNS_11char_traitsIcEENS_9allocatorIcEEEC2B7v160006IDnEEPKc, symObjAddr: 0xE44, symBinAddr: 0x100003C70, symSize: 0x60 }
...
